; Function Attrs: mustprogress uwtable
define noundef nonnull align 8 dereferenceable(8) ptr @_ZN35colvarbias_restraint_centers_moving10write_trajERSo(ptr nocapture noundef nonnull readonly align 8 dereferenceable(81) %0, ptr noundef nonnull returned align 8 dereferenceable(8) %1) unnamed_addr #4 align 2 {
  %3 = getelementptr inbounds i8, ptr %0, i64 80
  %4 = load i8, ptr %3, align 8
  %5 = trunc i8 %4 to i1
  %.pre = load ptr, ptr %0, align 8
  br i1 %5, label %.preheader, label %.loopexit

.preheader:                                       ; preds = %2
  %invariant.gep = getelementptr inbounds i8, ptr %0, i64 8
  %6 = getelementptr i8, ptr %.pre, i64 -24
  %7 = load i64, ptr %6, align 8
  %8 = getelementptr inbounds i8, ptr %0, i64 %7
  %9 = getelementptr inbounds i8, ptr %8, i64 152
  %10 = getelementptr inbounds i8, ptr %8, i64 160
  %11 = load ptr, ptr %10, align 8
  %12 = load ptr, ptr %9, align 8
  %.not = icmp eq ptr %11, %12
  br i1 %.not, label %.loopexit, label %.lr.ph

.lr.ph:                                           ; preds = %.preheader
  %13 = load i64, ptr @_ZN12colvarmodule7cv_precE, align 8
  %14 = trunc i64 %13 to i32
  %15 = load i64, ptr @_ZN12colvarmodule8cv_widthE, align 8
  %16 = trunc i64 %15 to i32
  br label %17

17:                                               ; preds = %.lr.ph, %17
  %.09 = phi i64 [ 0, %.lr.ph ], [ %27, %17 ]
  %18 = tail call noundef nonnull align 8 dereferenceable(8) ptr @_ZStlsISt11char_traitsIcEERSt13basic_ostreamIcT_ES5_PKc(ptr noundef nonnull align 8 dereferenceable(8) %1, ptr noundef nonnull @.str.44)
  %19 = tail call noundef nonnull align 8 dereferenceable(8) ptr @_ZStlsIcSt11char_traitsIcEERSt13basic_ostreamIT_T0_ES6_St13_Setprecision(ptr noundef nonnull align 8 dereferenceable(8) %18, i32 %14)
  %20 = tail call noundef nonnull align 8 dereferenceable(8) ptr @_ZStlsIcSt11char_traitsIcEERSt13basic_ostreamIT_T0_ES6_St5_Setw(ptr noundef nonnull align 8 dereferenceable(8) %19, i32 %16)
  %21 = load ptr, ptr %0, align 8
  %22 = getelementptr i8, ptr %21, i64 -152
  %23 = load i64, ptr %22, align 8
  %gep = getelementptr i8, ptr %invariant.gep, i64 %23
  %24 = load ptr, ptr %gep, align 8
  %25 = getelementptr inbounds %class.colvarvalue, ptr %24, i64 %.09
  %26 = tail call noundef nonnull align 8 dereferenceable(8) ptr @_ZlsRSoRK11colvarvalue(ptr noundef nonnull align 8 dereferenceable(8) %20, ptr noundef nonnull align 8 dereferenceable(168) %25)
  %27 = add nuw i64 %.09, 1
  %28 = load ptr, ptr %0, align 8
  %29 = getelementptr i8, ptr %28, i64 -24
  %30 = load i64, ptr %29, align 8
  %31 = getelementptr inbounds i8, ptr %0, i64 %30
  %32 = getelementptr inbounds i8, ptr %31, i64 152
  %33 = getelementptr inbounds i8, ptr %31, i64 160
  %34 = load ptr, ptr %33, align 8
  %35 = load ptr, ptr %32, align 8
  %36 = ptrtoint ptr %34 to i64
  %37 = ptrtoint ptr %35 to i64
  %38 = sub i64 %36, %37
  %39 = ashr exact i64 %38, 3
  %40 = icmp ult i64 %27, %39
  br i1 %40, label %17, label %.loopexit, !llvm.loop !32

.loopexit:                                        ; preds = %17, %.preheader, %2
  %41 = phi ptr [ %.pre, %.preheader ], [ %.pre, %2 ], [ %28, %17 ]
  %42 = getelementptr i8, ptr %41, i64 -168
  %43 = load i64, ptr %42, align 8
  %44 = getelementptr inbounds i8, ptr %0, i64 %43
  %45 = getelementptr inbounds i8, ptr %44, i64 8
  %46 = load i8, ptr %45, align 8
  %47 = trunc i8 %46 to i1
  br i1 %47, label %48, label %72

48:                                               ; preds = %.loopexit
  %49 = getelementptr i8, ptr %41, i64 -40
  %50 = load i64, ptr %49, align 8
  %51 = getelementptr inbounds i8, ptr %0, i64 %50
  %52 = getelementptr inbounds i8, ptr %51, i64 48
  %53 = load ptr, ptr %52, align 8
  %54 = getelementptr inbounds i8, ptr %53, i64 193
  %55 = load i8, ptr %54, align 1
  %56 = trunc i8 %55 to i1
  br i1 %56, label %57, label %72

57:                                               ; preds = %48
  %58 = tail call noundef nonnull align 8 dereferenceable(8) ptr @_ZStlsISt11char_traitsIcEERSt13basic_ostreamIcT_ES5_PKc(ptr noundef nonnull align 8 dereferenceable(8) %1, ptr noundef nonnull @.str.44)
  %59 = load i64, ptr @_ZN12colvarmodule7en_precE, align 8
  %60 = trunc i64 %59 to i32
  %61 = tail call noundef nonnull align 8 dereferenceable(8) ptr @_ZStlsIcSt11char_traitsIcEERSt13basic_ostreamIT_T0_ES6_St13_Setprecision(ptr noundef nonnull align 8 dereferenceable(8) %58, i32 %60)
  %62 = load i64, ptr @_ZN12colvarmodule8en_widthE, align 8
  %63 = trunc i64 %62 to i32
  %64 = tail call noundef nonnull align 8 dereferenceable(8) ptr @_ZStlsIcSt11char_traitsIcEERSt13basic_ostreamIT_T0_ES6_St5_Setw(ptr noundef nonnull align 8 dereferenceable(8) %61, i32 %63)
  %65 = load ptr, ptr %0, align 8
  %66 = getelementptr i8, ptr %65, i64 -168
  %67 = load i64, ptr %66, align 8
  %68 = getelementptr inbounds i8, ptr %0, i64 %67
  %69 = getelementptr inbounds i8, ptr %68, i64 64
  %70 = load double, ptr %69, align 8
  %71 = tail call noundef nonnull align 8 dereferenceable(8) ptr @_ZNSolsEd(ptr noundef nonnull align 8 dereferenceable(8) %64, double noundef %70)
  br label %72

72:                                               ; preds = %57, %48, %.loopexit
  ret ptr %1
}